Certificate:
    Data:
        Version: 3 (0x2)
        Serial Number: 1 (0x1)
    Signature Algorithm: sha1WithRSAEncryption
        Issuer: C=US, ST=CA, L=MountainView, O=DNAnexus, OU=Operations, CN=DNAnexus CA/name=DNAnexusPlatform/emailAddress=info@dnanexus.com
        Validity
            Not Before: Sep 15 02:06:37 2014 GMT
            Not After : Sep 12 02:06:37 2024 GMT
        Subject: C=US, ST=CA, L=MountainView, O=DNAnexus, OU=Operations, CN=*.example.com/name=DNAnexusPlatform/emailAddress=info@dnanexus.com
        Subject Public Key Info:
            Public Key Algorithm: rsaEncryption
                Public-Key: (1024 bit)
                Modulus:
                    00:bd:b0:98:d6:d5:ea:9e:31:fc:80:57:d8:f0:50:
                    dc:04:ce:31:5d:5e:37:34:e3:e9:d5:e2:7b:29:ef:
                    b3:d0:f4:b9:9b:c0:0e:c3:68:bb:e4:bc:2d:3f:1d:
                    0c:9f:b8:ad:2e:97:c1:eb:1f:79:91:59:10:6d:2d:
                    4f:5d:bf:c2:ff:c1:4f:74:1a:8c:2d:91:82:87:33:
                    be:65:6e:e2:e4:d9:7a:0a:47:5f:e5:0a:ae:98:97:
                    0e:39:b0:6a:b3:43:75:0d:0f:fb:eb:98:16:65:a5:
                    32:d9:8c:9c:97:fc:58:96:96:38:dd:1e:26:f7:36:
                    83:76:2a:f3:fa:31:ab:b1:09
                Exponent: 65537 (0x10001)
        X509v3 extensions:
            X509v3 Basic Constraints: 
                CA:FALSE
            Netscape Cert Type: 
                SSL Server
            Netscape Comment: 
                Easy-RSA Generated Server Certificate
            X509v3 Subject Key Identifier: 
                65:0C:EF:0B:42:D6:68:FC:AD:FC:25:0D:91:2E:B8:7A:B8:BE:37:35
            X509v3 Authority Key Identifier: 
                keyid:AF:A1:9A:E5:75:DD:C4:EF:42:85:FA:3C:5B:89:3B:AE:F7:AC:3F:96
                DirName:/C=US/ST=CA/L=MountainView/O=DNAnexus/OU=Operations/CN=DNAnexus CA/name=DNAnexusPlatform/emailAddress=info@dnanexus.com
                serial:89:03:89:65:CF:C4:53:91

            X509v3 Extended Key Usage: 
                TLS Web Server Authentication
            X509v3 Key Usage: 
                Digital Signature, Key Encipherment
    Signature Algorithm: sha1WithRSAEncryption
         02:ab:74:b8:fd:9c:f5:56:58:eb:a6:a9:2d:8f:ef:61:83:36:
         bc:25:16:42:a0:74:05:82:f4:3c:22:39:39:e1:07:cc:63:90:
         17:c0:db:0f:87:e2:a8:d1:d8:d8:d4:d1:3b:83:3f:9f:e8:0c:
         bd:ee:af:aa:e3:82:05:e8:2c:fd:f2:48:7f:96:68:5a:32:da:
         51:94:66:e4:f3:4e:08:ee:f3:5e:de:d5:1b:77:86:b6:ad:4c:
         15:f3:22:14:3e:9b:bf:b6:c0:24:29:e7:8e:d7:31:b7:a9:9e:
         f9:bc:58:d3:f4:10:92:57:71:34:4e:69:2d:a9:be:52:2a:81:
         e2:07
-----BEGIN CERTIFICATE-----
MIIEUTCCA7qgAwIBAgIBATANBgkqhkiG9w0BAQUFADCBrDELMAkGA1UEBhMCVVMx
CzAJBgNVBAgTAkNBMRUwEwYDVQQHEwxNb3VudGFpblZpZXcxETAPBgNVBAoTCERO
QW5leHVzMRMwEQYDVQQLEwpPcGVyYXRpb25zMRQwEgYDVQQDEwtETkFuZXh1cyBD
QTEZMBcGA1UEKRMQRE5BbmV4dXNQbGF0Zm9ybTEgMB4GCSqGSIb3DQEJARYRaW5m
b0BkbmFuZXh1cy5jb20wHhcNMTQwOTE1MDIwNjM3WhcNMjQwOTEyMDIwNjM3WjCB
rjELMAkGA1UEBhMCVVMxCzAJBgNVBAgTAkNBMRUwEwYDVQQHEwxNb3VudGFpblZp
ZXcxETAPBgNVBAoTCEROQW5leHVzMRMwEQYDVQQLEwpPcGVyYXRpb25zMRYwFAYD
VQQDFA0qLmV4YW1wbGUuY29tMRkwFwYDVQQpExBETkFuZXh1c1BsYXRmb3JtMSAw
HgYJKoZIhvcNAQkBFhFpbmZvQGRuYW5leHVzLmNvbTCBnzANBgkqhkiG9w0BAQEF
AAOBjQAwgYkCgYEAvbCY1tXqnjH8gFfY8FDcBM4xXV43NOPp1eJ7Ke+z0PS5m8AO
w2i75LwtPx0Mn7itLpfB6x95kVkQbS1PXb/C/8FPdBqMLZGChzO+ZW7i5Nl6Ckdf
5QqumJcOObBqs0N1DQ/765gWZaUy2Yycl/xYlpY43R4m9zaDdirz+jGrsQkCAwEA
AaOCAX0wggF5MAkGA1UdEwQCMAAwEQYJYIZIAYb4QgEBBAQDAgZAMDQGCWCGSAGG
+EIBDQQnFiVFYXN5LVJTQSBHZW5lcmF0ZWQgU2VydmVyIENlcnRpZmljYXRlMB0G
A1UdDgQWBBRlDO8LQtZo/K38JQ2RLrh6uL43NTCB4QYDVR0jBIHZMIHWgBSvoZrl
dd3E70KF+jxbiTuu96w/lqGBsqSBrzCBrDELMAkGA1UEBhMCVVMxCzAJBgNVBAgT
AkNBMRUwEwYDVQQHEwxNb3VudGFpblZpZXcxETAPBgNVBAoTCEROQW5leHVzMRMw
EQYDVQQLEwpPcGVyYXRpb25zMRQwEgYDVQQDEwtETkFuZXh1cyBDQTEZMBcGA1UE
KRMQRE5BbmV4dXNQbGF0Zm9ybTEgMB4GCSqGSIb3DQEJARYRaW5mb0BkbmFuZXh1
cy5jb22CCQCJA4llz8RTkTATBgNVHSUEDDAKBggrBgEFBQcDATALBgNVHQ8EBAMC
BaAwDQYJKoZIhvcNAQEFBQADgYEAAqt0uP2c9VZY66apLY/vYYM2vCUWQqB0BYL0
PCI5OeEHzGOQF8DbD4fiqNHY2NTRO4M/n+gMve6vquOCBegs/fJIf5ZoWjLaUZRm
5PNOCO7zXt7VG3eGtq1MFfMiFD6bv7bAJCnnjtcxt6me+bxY0/QQkldxNE5pLam+
UiqB4gc=
-----END CERTIFICATE-----
